; Function Attrs: mustprogress uwtable
define hidden void @_ZN19OpenColorIO_v2_5dev12MatrixOpDataC2ENS_18TransformDirectionE(ptr noundef nonnull align 8 dereferenceable(260) %0, i32 noundef %1) unnamed_addr #3 align 2 personality ptr @__gxx_personality_v0 {
_ZNKSt6vectorIdSaIdEE12_M_check_lenEmPKc.exit.i:
  tail call void @_ZN19OpenColorIO_v2_5dev6OpDataC2Ev(ptr noundef nonnull align 8 dereferenceable(168) %0)
  store ptr getelementptr inbounds nuw inrange(-16, 88) (i8, ptr @_ZTVN19OpenColorIO_v2_5dev12MatrixOpDataE, i64 16), ptr %0, align 8, !tbaa !15
  %2 = getelementptr inbounds nuw i8, ptr %0, i64 168
  %3 = getelementptr inbounds nuw i8, ptr %0, i64 176
  %4 = getelementptr inbounds nuw i8, ptr %0, i64 192
  tail call void @llvm.memset.p0.i64(ptr noundef nonnull align 8 dereferenceable(24) %4, i8 0, i64 24, i1 false)
  store ptr getelementptr inbounds nuw inrange(-16, 72) (i8, ptr @_ZTVN19OpenColorIO_v2_5dev12MatrixOpData11MatrixArrayE, i64 16), ptr %2, align 8, !tbaa !15
  store i64 4, ptr %3, align 8, !tbaa !17
  %5 = getelementptr inbounds nuw i8, ptr %0, i64 184
  store i64 4, ptr %5, align 8, !tbaa !24
  %6 = invoke noalias noundef nonnull dereferenceable(128) ptr @_Znwm(i64 noundef 128) #37
          to label %.preheader.i.i.preheader unwind label %.body

.preheader.i.i.preheader:                         ; preds = %_ZNKSt6vectorIdSaIdEE12_M_check_lenEmPKc.exit.i
  %7 = getelementptr inbounds nuw i8, ptr %0, i64 208
  %8 = getelementptr inbounds nuw i8, ptr %0, i64 200
  store ptr %6, ptr %4, align 8, !tbaa !9
  %9 = getelementptr inbounds nuw i8, ptr %6, i64 128
  store ptr %9, ptr %8, align 8, !tbaa !25
  store ptr %9, ptr %7, align 8, !tbaa !28
  tail call void @llvm.memset.p0.i64(ptr noundef nonnull align 8 dereferenceable(128) %6, i8 0, i64 128, i1 false)
  br label %.preheader.i.i

.preheader.i.i:                                   ; preds = %.preheader.i.i.preheader, %13
  %.01417.i.i = phi i64 [ %14, %13 ], [ 0, %.preheader.i.i.preheader ]
  %10 = load ptr, ptr %4, align 8
  %.idx = shl i64 %.01417.i.i, 5
  %11 = getelementptr i8, ptr %10, i64 %.idx
  %12 = getelementptr double, ptr %11, i64 %.01417.i.i
  br label %15

13:                                               ; preds = %18
  %14 = add nuw i64 %.01417.i.i, 1
  %exitcond18.not.i.i = icmp eq i64 %14, 4
  br i1 %exitcond18.not.i.i, label %_ZN19OpenColorIO_v2_5dev12MatrixOpData11MatrixArrayC2Ev.exit, label %.preheader.i.i, !llvm.loop !26

15:                                               ; preds = %18, %.preheader.i.i
  %.016.i.i = phi i64 [ 0, %.preheader.i.i ], [ %19, %18 ]
  %16 = icmp eq i64 %.01417.i.i, %.016.i.i
  br i1 %16, label %17, label %18

17:                                               ; preds = %15
  store double 1.000000e+00, ptr %12, align 8, !tbaa !7
  br label %18

18:                                               ; preds = %17, %15
  %19 = add nuw i64 %.016.i.i, 1
  %exitcond.not.i.i = icmp eq i64 %19, 4
  br i1 %exitcond.not.i.i, label %13, label %15, !llvm.loop !27

_ZN19OpenColorIO_v2_5dev12MatrixOpData11MatrixArrayC2Ev.exit: ; preds = %13
  %20 = getelementptr inbounds nuw i8, ptr %0, i64 216
  %21 = getelementptr inbounds nuw i8, ptr %0, i64 256
  tail call void @llvm.memset.p0.i64(ptr noundef nonnull align 8 dereferenceable(40) %20, i8 0, i64 40, i1 false)
  store i32 %1, ptr %21, align 8, !tbaa !71
  ret void

.body:                                            ; preds = %_ZNKSt6vectorIdSaIdEE12_M_check_lenEmPKc.exit.i
  %22 = landingpad { ptr, i32 }
          cleanup
  store ptr getelementptr inbounds nuw inrange(-16, 72) (i8, ptr @_ZTVN19OpenColorIO_v2_5dev6ArrayTIdEE, i64 16), ptr %2, align 8, !tbaa !15
  store ptr getelementptr inbounds nuw inrange(-16, 88) (i8, ptr @_ZTVN19OpenColorIO_v2_5dev6OpDataE, i64 16), ptr %0, align 8, !tbaa !15
  %23 = getelementptr inbounds nuw i8, ptr %0, i64 48
  tail call void @_ZN19OpenColorIO_v2_5dev18FormatMetadataImplD1Ev(ptr noundef nonnull align 8 dereferenceable(120) %23) #34
  resume { ptr, i32 } %22
}